target datalayout = "e-m:e-p270:32:32-p271:32:32-p272:64:64-i64:64-i128:128-f80:128-n8:16:32:64-S128"
target triple = "x86_64-pc-linux-gnu"

%struct.AVFormatContext = type { ptr, ptr, ptr, ptr, ptr, i32, i32, ptr, i32, ptr, i32, ptr, ptr, i64, i64, i64, i32, i32, i32, i64, i64, ptr, i32, i32, ptr, i32, i32, i32, i32, ptr, i64, i32, i32, %struct.AVIOInterruptCB, i32, i32, i32, i32, i64, i32, i32, i32, i32, i32, i32, i32, i32, i32, i32, i32, i32, i64, i32, i32, i32, i32, i32, ptr, ptr, ptr, ptr, i32, ptr, ptr, ptr, ptr, i32, ptr, ptr, i64, ptr, ptr, ptr, i64 }
%struct.AVIOInterruptCB = type { ptr, ptr }
%struct.MvContext = type { i32, i32, i32, i32, [2 x i32], i32, i32 }

@.str.17 = private unnamed_addr constant [15 x i8] c"__NUM_I_TRACKS\00", align 1
@.str.18 = private unnamed_addr constant [15 x i8] c"__NUM_A_TRACKS\00", align 1
@.str.19 = private unnamed_addr constant [8 x i8] c"COMMENT\00", align 1
@.str.20 = private unnamed_addr constant [6 x i8] c"TITLE\00", align 1
@.str.21 = private unnamed_addr constant [10 x i8] c"LOOP_MODE\00", align 1
@.str.22 = private unnamed_addr constant [10 x i8] c"NUM_LOOPS\00", align 1
@.str.23 = private unnamed_addr constant [10 x i8] c"OPTIMIZED\00", align 1

; Function Attrs: nounwind uwtable
define internal ptr @var_read_string(ptr noundef %0, i32 noundef %1) #0 {
  %3 = alloca ptr, align 8
  %4 = alloca ptr, align 8
  %5 = alloca i32, align 4
  %6 = alloca i32, align 4
  %7 = alloca ptr, align 8
  %8 = alloca i32, align 4
  store ptr %0, ptr %4, align 8, !tbaa !34
  store i32 %1, ptr %5, align 4, !tbaa !37
  call void @llvm.lifetime.start.p0(i64 4, ptr %6) #10
  call void @llvm.lifetime.start.p0(i64 8, ptr %7) #10
  %9 = load i32, ptr %5, align 4, !tbaa !37
  %10 = icmp slt i32 %9, 0
  br i1 %10, label %14, label %11

11:                                               ; preds = %2
  %12 = load i32, ptr %5, align 4, !tbaa !37
  %13 = icmp eq i32 %12, 2147483647
  br i1 %13, label %14, label %15

14:                                               ; preds = %11, %2
  store ptr null, ptr %3, align 8
  store i32 1, ptr %8, align 4
  br label %42

15:                                               ; preds = %11
  %16 = load i32, ptr %5, align 4, !tbaa !37
  %17 = add nsw i32 %16, 1
  %18 = sext i32 %17 to i64
  %19 = call noalias ptr @av_malloc(i64 noundef %18)
  store ptr %19, ptr %7, align 8, !tbaa !101
  %20 = load ptr, ptr %7, align 8, !tbaa !101
  %21 = icmp ne ptr %20, null
  br i1 %21, label %23, label %22

22:                                               ; preds = %15
  store ptr null, ptr %3, align 8
  store i32 1, ptr %8, align 4
  br label %42

23:                                               ; preds = %15
  %24 = load ptr, ptr %4, align 8, !tbaa !34
  %25 = load i32, ptr %5, align 4, !tbaa !37
  %26 = load ptr, ptr %7, align 8, !tbaa !101
  %27 = load i32, ptr %5, align 4, !tbaa !37
  %28 = add nsw i32 %27, 1
  %29 = call i32 @avio_get_str(ptr noundef %24, i32 noundef %25, ptr noundef %26, i32 noundef %28)
  store i32 %29, ptr %6, align 4, !tbaa !37
  %30 = load i32, ptr %6, align 4, !tbaa !37
  %31 = load i32, ptr %5, align 4, !tbaa !37
  %32 = icmp slt i32 %30, %31
  br i1 %32, label %33, label %40

33:                                               ; preds = %23
  %34 = load ptr, ptr %4, align 8, !tbaa !34
  %35 = load i32, ptr %5, align 4, !tbaa !37
  %36 = load i32, ptr %6, align 4, !tbaa !37
  %37 = sub nsw i32 %35, %36
  %38 = sext i32 %37 to i64
  %39 = call i64 @avio_skip(ptr noundef %34, i64 noundef %38)
  br label %40

40:                                               ; preds = %33, %23
  %41 = load ptr, ptr %7, align 8, !tbaa !101
  store ptr %41, ptr %3, align 8
  store i32 1, ptr %8, align 4
  br label %42

42:                                               ; preds = %40, %22, %14
  call void @llvm.lifetime.end.p0(i64 8, ptr %7) #10
  call void @llvm.lifetime.end.p0(i64 4, ptr %6) #10
  %43 = load ptr, ptr %3, align 8
  ret ptr %43
}

; Function Attrs: nounwind uwtable
define internal void @var_read_metadata(ptr noundef %0, ptr noundef %1, i32 noundef %2) #0 {
  %4 = alloca ptr, align 8
  %5 = alloca ptr, align 8
  %6 = alloca i32, align 4
  %7 = alloca ptr, align 8
  store ptr %0, ptr %4, align 8, !tbaa !14
  store ptr %1, ptr %5, align 8, !tbaa !101
  store i32 %2, ptr %6, align 4, !tbaa !37
  call void @llvm.lifetime.start.p0(i64 8, ptr %7) #10
  %8 = load ptr, ptr %4, align 8, !tbaa !14
  %9 = getelementptr inbounds nuw %struct.AVFormatContext, ptr %8, i32 0, i32 4
  %10 = load ptr, ptr %9, align 8, !tbaa !33
  %11 = load i32, ptr %6, align 4, !tbaa !37
  %12 = call ptr @var_read_string(ptr noundef %10, i32 noundef %11)
  store ptr %12, ptr %7, align 8, !tbaa !101
  %13 = load ptr, ptr %7, align 8, !tbaa !101
  %14 = icmp ne ptr %13, null
  br i1 %14, label %15, label %21

15:                                               ; preds = %3
  %16 = load ptr, ptr %4, align 8, !tbaa !14
  %17 = getelementptr inbounds nuw %struct.AVFormatContext, ptr %16, i32 0, i32 29
  %18 = load ptr, ptr %5, align 8, !tbaa !101
  %19 = load ptr, ptr %7, align 8, !tbaa !101
  %20 = call i32 @av_dict_set(ptr noundef %17, ptr noundef %18, ptr noundef %19, i32 noundef 8)
  br label %21

21:                                               ; preds = %15, %3
  call void @llvm.lifetime.end.p0(i64 8, ptr %7) #10
  ret void
}

; Function Attrs: nounwind uwtable
define internal i32 @var_read_int(ptr noundef %0, i32 noundef %1) #0 {
  %3 = alloca i32, align 4
  %4 = alloca ptr, align 8
  %5 = alloca i32, align 4
  %6 = alloca i32, align 4
  %7 = alloca ptr, align 8
  %8 = alloca i32, align 4
  store ptr %0, ptr %4, align 8, !tbaa !34
  store i32 %1, ptr %5, align 4, !tbaa !37
  call void @llvm.lifetime.start.p0(i64 4, ptr %6) #10
  call void @llvm.lifetime.start.p0(i64 8, ptr %7) #10
  %9 = load ptr, ptr %4, align 8, !tbaa !34
  %10 = load i32, ptr %5, align 4, !tbaa !37
  %11 = call ptr @var_read_string(ptr noundef %9, i32 noundef %10)
  store ptr %11, ptr %7, align 8, !tbaa !101
  %12 = load ptr, ptr %7, align 8, !tbaa !101
  %13 = icmp ne ptr %12, null
  br i1 %13, label %15, label %14

14:                                               ; preds = %2
  store i32 0, ptr %3, align 4
  store i32 1, ptr %8, align 4
  br label %21

15:                                               ; preds = %2
  %16 = load ptr, ptr %7, align 8, !tbaa !101
  %17 = call i64 @strtol(ptr noundef %16, ptr noundef null, i32 noundef 10) #10
  %18 = trunc i64 %17 to i32
  store i32 %18, ptr %6, align 4, !tbaa !37
  %19 = load ptr, ptr %7, align 8, !tbaa !101
  call void @av_free(ptr noundef %19)
  %20 = load i32, ptr %6, align 4, !tbaa !37
  store i32 %20, ptr %3, align 4
  store i32 1, ptr %8, align 4
  br label %21

21:                                               ; preds = %15, %14
  call void @llvm.lifetime.end.p0(i64 8, ptr %7) #10
  call void @llvm.lifetime.end.p0(i64 4, ptr %6) #10
  %22 = load i32, ptr %3, align 4
  ret i32 %22
}

; Function Attrs: nounwind uwtable
define internal i32 @parse_global_var(ptr noundef %0, ptr noundef %1, ptr noundef %2, i32 noundef %3) #0 {
  %5 = alloca i32, align 4
  %6 = alloca ptr, align 8
  %7 = alloca ptr, align 8
  %8 = alloca ptr, align 8
  %9 = alloca i32, align 4
  %10 = alloca ptr, align 8
  %11 = alloca ptr, align 8
  %12 = alloca i32, align 4
  store ptr %0, ptr %6, align 8, !tbaa !14
  store ptr %1, ptr %7, align 8, !tbaa !35
  store ptr %2, ptr %8, align 8, !tbaa !101
  store i32 %3, ptr %9, align 4, !tbaa !37
  call void @llvm.lifetime.start.p0(i64 8, ptr %10) #10
  %13 = load ptr, ptr %6, align 8, !tbaa !14
  %14 = getelementptr inbounds nuw %struct.AVFormatContext, ptr %13, i32 0, i32 3
  %15 = load ptr, ptr %14, align 8, !tbaa !16
  store ptr %15, ptr %10, align 8, !tbaa !31
  call void @llvm.lifetime.start.p0(i64 8, ptr %11) #10
  %16 = load ptr, ptr %6, align 8, !tbaa !14
  %17 = getelementptr inbounds nuw %struct.AVFormatContext, ptr %16, i32 0, i32 4
  %18 = load ptr, ptr %17, align 8, !tbaa !33
  store ptr %18, ptr %11, align 8, !tbaa !34
  %19 = load ptr, ptr %8, align 8, !tbaa !101
  %20 = call i32 @strcmp(ptr noundef %19, ptr noundef @.str.17) #11
  %21 = icmp ne i32 %20, 0
  br i1 %21, label %28, label %22

22:                                               ; preds = %4
  %23 = load ptr, ptr %11, align 8, !tbaa !34
  %24 = load i32, ptr %9, align 4, !tbaa !37
  %25 = call i32 @var_read_int(ptr noundef %23, i32 noundef %24)
  %26 = load ptr, ptr %10, align 8, !tbaa !31
  %27 = getelementptr inbounds nuw %struct.MvContext, ptr %26, i32 0, i32 0
  store i32 %25, ptr %27, align 4, !tbaa !65
  br label %71

28:                                               ; preds = %4
  %29 = load ptr, ptr %8, align 8, !tbaa !101
  %30 = call i32 @strcmp(ptr noundef %29, ptr noundef @.str.18) #11
  %31 = icmp ne i32 %30, 0
  br i1 %31, label %38, label %32

32:                                               ; preds = %28
  %33 = load ptr, ptr %11, align 8, !tbaa !34
  %34 = load i32, ptr %9, align 4, !tbaa !37
  %35 = call i32 @var_read_int(ptr noundef %33, i32 noundef %34)
  %36 = load ptr, ptr %10, align 8, !tbaa !31
  %37 = getelementptr inbounds nuw %struct.MvContext, ptr %36, i32 0, i32 1
  store i32 %35, ptr %37, align 4, !tbaa !63
  br label %70

38:                                               ; preds = %28
  %39 = load ptr, ptr %8, align 8, !tbaa !101
  %40 = call i32 @strcmp(ptr noundef %39, ptr noundef @.str.19) #11
  %41 = icmp ne i32 %40, 0
  br i1 %41, label %42, label %46

42:                                               ; preds = %38
  %43 = load ptr, ptr %8, align 8, !tbaa !101
  %44 = call i32 @strcmp(ptr noundef %43, ptr noundef @.str.20) #11
  %45 = icmp ne i32 %44, 0
  br i1 %45, label %50, label %46

46:                                               ; preds = %42, %38
  %47 = load ptr, ptr %6, align 8, !tbaa !14
  %48 = load ptr, ptr %8, align 8, !tbaa !101
  %49 = load i32, ptr %9, align 4, !tbaa !37
  call void @var_read_metadata(ptr noundef %47, ptr noundef %48, i32 noundef %49)
  br label %69

50:                                               ; preds = %42
  %51 = load ptr, ptr %8, align 8, !tbaa !101
  %52 = call i32 @strcmp(ptr noundef %51, ptr noundef @.str.21) #11
  %53 = icmp ne i32 %52, 0
  br i1 %53, label %54, label %62

54:                                               ; preds = %50
  %55 = load ptr, ptr %8, align 8, !tbaa !101
  %56 = call i32 @strcmp(ptr noundef %55, ptr noundef @.str.22) #11
  %57 = icmp ne i32 %56, 0
  br i1 %57, label %58, label %62

58:                                               ; preds = %54
  %59 = load ptr, ptr %8, align 8, !tbaa !101
  %60 = call i32 @strcmp(ptr noundef %59, ptr noundef @.str.23) #11
  %61 = icmp ne i32 %60, 0
  br i1 %61, label %67, label %62

62:                                               ; preds = %58, %54, %50
  %63 = load ptr, ptr %11, align 8, !tbaa !34
  %64 = load i32, ptr %9, align 4, !tbaa !37
  %65 = sext i32 %64 to i64
  %66 = call i64 @avio_skip(ptr noundef %63, i64 noundef %65)
  br label %68

67:                                               ; preds = %58
  store i32 -1094995529, ptr %5, align 4
  store i32 1, ptr %12, align 4
  br label %72

68:                                               ; preds = %62
  br label %69

69:                                               ; preds = %68, %46
  br label %70

70:                                               ; preds = %69, %32
  br label %71

71:                                               ; preds = %70, %22
  store i32 0, ptr %5, align 4
  store i32 1, ptr %12, align 4
  br label %72

72:                                               ; preds = %71, %67
  call void @llvm.lifetime.end.p0(i64 8, ptr %11) #10
  call void @llvm.lifetime.end.p0(i64 8, ptr %10) #10
  %73 = load i32, ptr %5, align 4
  ret i32 %73
}