; Function Attrs: nounwind uwtable
define internal range(i32 -1094995529, 1) i32 @parse_global_var(ptr noundef %0, ptr readnone captures(none) %1, ptr noundef %2, i32 noundef %3) #1 {
  %5 = getelementptr inbounds nuw i8, ptr %0, i64 24
  %6 = load ptr, ptr %5, align 8, !tbaa !12
  %7 = getelementptr inbounds nuw i8, ptr %0, i64 32
  %8 = load ptr, ptr %7, align 8, !tbaa !27
  %9 = tail call i32 @strcmp(ptr noundef nonnull dereferenceable(1) %2, ptr noundef nonnull dereferenceable(15) @.str.17) #10
  %.not = icmp eq i32 %9, 0
  br i1 %.not, label %10, label %24

10:                                               ; preds = %4
  %or.cond.i.i = icmp ugt i32 %3, 2147483646
  br i1 %or.cond.i.i, label %var_read_int.exit, label %11

11:                                               ; preds = %10
  %12 = add nuw nsw i32 %3, 1
  %13 = zext nneg i32 %12 to i64
  %14 = tail call noalias ptr @av_malloc(i64 noundef %13) #8
  %.not.i.i = icmp eq ptr %14, null
  br i1 %.not.i.i, label %var_read_int.exit, label %15

15:                                               ; preds = %11
  %16 = tail call i32 @avio_get_str(ptr noundef %8, i32 noundef %3, ptr noundef nonnull %14, i32 noundef %12) #8
  %17 = icmp slt i32 %16, %3
  br i1 %17, label %18, label %var_read_string.exit.i

18:                                               ; preds = %15
  %19 = sub nsw i32 %3, %16
  %20 = sext i32 %19 to i64
  %21 = tail call i64 @avio_skip(ptr noundef %8, i64 noundef %20) #8
  br label %var_read_string.exit.i

var_read_string.exit.i:                           ; preds = %18, %15
  %22 = tail call i64 @strtol(ptr noundef nonnull captures(none) %14, ptr noundef null, i32 noundef 10) #8
  %23 = trunc i64 %22 to i32
  tail call void @av_free(ptr noundef nonnull %14) #8
  br label %var_read_int.exit

var_read_int.exit:                                ; preds = %10, %11, %var_read_string.exit.i
  %.0.i = phi i32 [ %23, %var_read_string.exit.i ], [ 0, %10 ], [ 0, %11 ]
  store i32 %.0.i, ptr %6, align 4, !tbaa !52
  br label %var_read_metadata.exit

24:                                               ; preds = %4
  %25 = tail call i32 @strcmp(ptr noundef nonnull dereferenceable(1) %2, ptr noundef nonnull dereferenceable(15) @.str.18) #10
  %.not20 = icmp eq i32 %25, 0
  br i1 %.not20, label %26, label %41

26:                                               ; preds = %24
  %or.cond.i.i26 = icmp ugt i32 %3, 2147483646
  br i1 %or.cond.i.i26, label %var_read_int.exit30, label %27

27:                                               ; preds = %26
  %28 = add nuw nsw i32 %3, 1
  %29 = zext nneg i32 %28 to i64
  %30 = tail call noalias ptr @av_malloc(i64 noundef %29) #8
  %.not.i.i27 = icmp eq ptr %30, null
  br i1 %.not.i.i27, label %var_read_int.exit30, label %31

31:                                               ; preds = %27
  %32 = tail call i32 @avio_get_str(ptr noundef %8, i32 noundef %3, ptr noundef nonnull %30, i32 noundef %28) #8
  %33 = icmp slt i32 %32, %3
  br i1 %33, label %34, label %var_read_string.exit.i28

34:                                               ; preds = %31
  %35 = sub nsw i32 %3, %32
  %36 = sext i32 %35 to i64
  %37 = tail call i64 @avio_skip(ptr noundef %8, i64 noundef %36) #8
  br label %var_read_string.exit.i28

var_read_string.exit.i28:                         ; preds = %34, %31
  %38 = tail call i64 @strtol(ptr noundef nonnull captures(none) %30, ptr noundef null, i32 noundef 10) #8
  %39 = trunc i64 %38 to i32
  tail call void @av_free(ptr noundef nonnull %30) #8
  br label %var_read_int.exit30

var_read_int.exit30:                              ; preds = %26, %27, %var_read_string.exit.i28
  %.0.i29 = phi i32 [ %39, %var_read_string.exit.i28 ], [ 0, %26 ], [ 0, %27 ]
  %40 = getelementptr inbounds nuw i8, ptr %6, i64 4
  store i32 %.0.i29, ptr %40, align 4, !tbaa !50
  br label %var_read_metadata.exit

41:                                               ; preds = %24
  %42 = tail call i32 @strcmp(ptr noundef nonnull dereferenceable(1) %2, ptr noundef nonnull dereferenceable(8) @.str.19) #10
  %.not21 = icmp eq i32 %42, 0
  br i1 %.not21, label %45, label %43

43:                                               ; preds = %41
  %44 = tail call i32 @strcmp(ptr noundef nonnull dereferenceable(1) %2, ptr noundef nonnull dereferenceable(6) @.str.20) #10
  %.not22 = icmp eq i32 %44, 0
  br i1 %.not22, label %45, label %59

45:                                               ; preds = %43, %41
  %or.cond.i.i31 = icmp ugt i32 %3, 2147483646
  br i1 %or.cond.i.i31, label %var_read_metadata.exit, label %46

46:                                               ; preds = %45
  %47 = add nuw nsw i32 %3, 1
  %48 = zext nneg i32 %47 to i64
  %49 = tail call noalias ptr @av_malloc(i64 noundef %48) #8
  %.not.i.i32 = icmp eq ptr %49, null
  br i1 %.not.i.i32, label %var_read_metadata.exit, label %50

50:                                               ; preds = %46
  %51 = tail call i32 @avio_get_str(ptr noundef %8, i32 noundef %3, ptr noundef nonnull %49, i32 noundef %47) #8
  %52 = icmp slt i32 %51, %3
  br i1 %52, label %53, label %var_read_string.exit.i33

53:                                               ; preds = %50
  %54 = sub nsw i32 %3, %51
  %55 = sext i32 %54 to i64
  %56 = tail call i64 @avio_skip(ptr noundef %8, i64 noundef %55) #8
  br label %var_read_string.exit.i33

var_read_string.exit.i33:                         ; preds = %53, %50
  %57 = getelementptr inbounds nuw i8, ptr %0, i64 192
  %58 = tail call i32 @av_dict_set(ptr noundef nonnull %57, ptr noundef nonnull %2, ptr noundef nonnull %49, i32 noundef 8) #8
  br label %var_read_metadata.exit

59:                                               ; preds = %43
  %60 = tail call i32 @strcmp(ptr noundef nonnull dereferenceable(1) %2, ptr noundef nonnull dereferenceable(10) @.str.21) #10
  %.not23 = icmp eq i32 %60, 0
  br i1 %.not23, label %65, label %61

61:                                               ; preds = %59
  %62 = tail call i32 @strcmp(ptr noundef nonnull dereferenceable(1) %2, ptr noundef nonnull dereferenceable(10) @.str.22) #10
  %.not24 = icmp eq i32 %62, 0
  br i1 %.not24, label %65, label %63

63:                                               ; preds = %61
  %64 = tail call i32 @strcmp(ptr noundef nonnull dereferenceable(1) %2, ptr noundef nonnull dereferenceable(10) @.str.23) #10
  %.not25 = icmp eq i32 %64, 0
  br i1 %.not25, label %65, label %var_read_metadata.exit

65:                                               ; preds = %63, %61, %59
  %66 = sext i32 %3 to i64
  %67 = tail call i64 @avio_skip(ptr noundef %8, i64 noundef %66) #8
  br label %var_read_metadata.exit

var_read_metadata.exit:                           ; preds = %var_read_string.exit.i33, %46, %45, %var_read_int.exit, %65, %var_read_int.exit30, %63
  %.0 = phi i32 [ -1094995529, %63 ], [ 0, %var_read_int.exit30 ], [ 0, %65 ], [ 0, %var_read_int.exit ], [ 0, %45 ], [ 0, %46 ], [ 0, %var_read_string.exit.i33 ]
  ret i32 %.0
}